---
triple:          'arm64-apple-darwin'
binary-path:     .1974B
relocations:
  - { offsetInCU: 0xD8, offset: 0xD8, size: 0x8, addend: 0x0, symName: __ZNKSt5ctypeIcE8do_widenEc, symObjAddr: 0x0, symBinAddr: 0x100006630, symSize: 0x10 }
  - { offsetInCU: 0x7FB2, offset: 0x7FB2, size: 0x8, addend: 0x0, symName: __ZStL8__ioinit, symObjAddr: 0x6E3F0, symBinAddr: 0x10000C0E0, symSize: 0x0 }
  - { offsetInCU: 0x195F0, offset: 0x195F0, size: 0x8, addend: 0x0, symName: __GLOBAL__sub_I_1974B.cpp, symObjAddr: 0x1284, symBinAddr: 0x100007874, symSize: 0x3C }
  - { offsetInCU: 0x1BF08, offset: 0x1BF08, size: 0x8, addend: 0x0, symName: _main, symObjAddr: 0x1200, symBinAddr: 0x1000077F0, symSize: 0x84 }
  - { offsetInCU: 0x1BF10, offset: 0x1BF10, size: 0x8, addend: 0x0, symName: __GLOBAL__sub_I_1974B.cpp, symObjAddr: 0x1284, symBinAddr: 0x100007874, symSize: 0x3C }
  - { offsetInCU: 0x1BF90, offset: 0x1BF90, size: 0x8, addend: 0x0, symName: __Z5solvev, symObjAddr: 0xBC0, symBinAddr: 0x1000071F0, symSize: 0x5F8 }
  - { offsetInCU: 0x1DFFD, offset: 0x1DFFD, size: 0x8, addend: 0x0, symName: __ZNKSt5ctypeIcE8do_widenEc, symObjAddr: 0x0, symBinAddr: 0x100006630, symSize: 0x10 }
  - { offsetInCU: 0x1E01E, offset: 0x1E01E, size: 0x8, addend: 0x0, symName: __ZSt13__adjust_heapIN9__gnu_cxx17__normal_iteratorIPcNSt7__cxx1112basic_stringIcSt11char_traitsIcESaIcEEEEElcNS0_5__ops15_Iter_less_iterEEvT_T0_SD_T1_T2_.isra.0, symObjAddr: 0x10, symBinAddr: 0x100006640, symSize: 0xF4 }
  - { offsetInCU: 0x1E026, offset: 0x1E026, size: 0x8, addend: 0x0, symName: __ZNSt8_Rb_treeIcSt4pairIKccESt10_Select1stIS2_ESt4lessIcESaIS2_EE24_M_get_insert_unique_posERS1_.isra.0, symObjAddr: 0x104, symBinAddr: 0x100006734, symSize: 0xA0 }
  - { offsetInCU: 0x1E26C, offset: 0x1E26C, size: 0x8, addend: 0x0, symName: __ZNSt8_Rb_treeIcSt4pairIKccESt10_Select1stIS2_ESt4lessIcESaIS2_EE24_M_get_insert_unique_posERS1_.isra.0, symObjAddr: 0x104, symBinAddr: 0x100006734, symSize: 0xA0 }
  - { offsetInCU: 0x1E274, offset: 0x1E274, size: 0x8, addend: 0x0, symName: __ZSt16__insertion_sortIN9__gnu_cxx17__normal_iteratorIPcNSt7__cxx1112basic_stringIcSt11char_traitsIcESaIcEEEEENS0_5__ops15_Iter_less_iterEEvT_SC_T0_.isra.0, symObjAddr: 0x1A4, symBinAddr: 0x1000067D4, symSize: 0xCC }
  - { offsetInCU: 0x1E402, offset: 0x1E402, size: 0x8, addend: 0x0, symName: __ZSt16__insertion_sortIN9__gnu_cxx17__normal_iteratorIPcNSt7__cxx1112basic_stringIcSt11char_traitsIcESaIcEEEEENS0_5__ops15_Iter_less_iterEEvT_SC_T0_.isra.0, symObjAddr: 0x1A4, symBinAddr: 0x1000067D4, symSize: 0xCC }
  - { offsetInCU: 0x1E72D, offset: 0x1E72D, size: 0x8, addend: 0x0, symName: __ZNSt8_Rb_treeIcSt4pairIKciESt10_Select1stIS2_ESt4lessIcESaIS2_EE24_M_get_insert_unique_posERS1_.isra.0, symObjAddr: 0x270, symBinAddr: 0x1000068A0, symSize: 0xA0 }
  - { offsetInCU: 0x1E735, offset: 0x1E735, size: 0x8, addend: 0x0, symName: __ZNSt8_Rb_treeIcSt4pairIKciESt10_Select1stIS2_ESt4lessIcESaIS2_EE22_M_emplace_hint_uniqueIJRKSt21piecewise_construct_tSt5tupleIJRS1_EESD_IJEEEEESt17_Rb_tree_iteratorIS2_ESt23_Rb_tree_const_iteratorIS2_EDpOT_.isra.0, symObjAddr: 0x310, symBinAddr: 0x100006940, symSize: 0x194 }
  - { offsetInCU: 0x1E8C3, offset: 0x1E8C3, size: 0x8, addend: 0x0, symName: __ZNSt8_Rb_treeIcSt4pairIKciESt10_Select1stIS2_ESt4lessIcESaIS2_EE22_M_emplace_hint_uniqueIJRKSt21piecewise_construct_tSt5tupleIJRS1_EESD_IJEEEEESt17_Rb_tree_iteratorIS2_ESt23_Rb_tree_const_iteratorIS2_EDpOT_.isra.0, symObjAddr: 0x310, symBinAddr: 0x100006940, symSize: 0x194 }
  - { offsetInCU: 0x1E8CB, offset: 0x1E8CB, size: 0x8, addend: 0x0, symName: __ZNSt7__cxx1112basic_stringIcSt11char_traitsIcESaIcEE12_M_constructIPKcEEvT_S8_St20forward_iterator_tag.isra.0, symObjAddr: 0x4A4, symBinAddr: 0x100006AD4, symSize: 0xBC }
  - { offsetInCU: 0x1EEEA, offset: 0x1EEEA, size: 0x8, addend: 0x0, symName: __ZNSt7__cxx1112basic_stringIcSt11char_traitsIcESaIcEE12_M_constructIPKcEEvT_S8_St20forward_iterator_tag.isra.0, symObjAddr: 0x4A4, symBinAddr: 0x100006AD4, symSize: 0xBC }
  - { offsetInCU: 0x1EEF2, offset: 0x1EEF2, size: 0x8, addend: 0x0, symName: __ZNSt8_Rb_treeIcSt4pairIKccESt10_Select1stIS2_ESt4lessIcESaIS2_EE22_M_emplace_hint_uniqueIJRKSt21piecewise_construct_tSt5tupleIJRS1_EESD_IJEEEEESt17_Rb_tree_iteratorIS2_ESt23_Rb_tree_const_iteratorIS2_EDpOT_.isra.0, symObjAddr: 0x560, symBinAddr: 0x100006B90, symSize: 0x194 }
  - { offsetInCU: 0x1F23F, offset: 0x1F23F, size: 0x8, addend: 0x0, symName: __ZNSt8_Rb_treeIcSt4pairIKccESt10_Select1stIS2_ESt4lessIcESaIS2_EE22_M_emplace_hint_uniqueIJRKSt21piecewise_construct_tSt5tupleIJRS1_EESD_IJEEEEESt17_Rb_tree_iteratorIS2_ESt23_Rb_tree_const_iteratorIS2_EDpOT_.isra.0, symObjAddr: 0x560, symBinAddr: 0x100006B90, symSize: 0x194 }
  - { offsetInCU: 0x1F247, offset: 0x1F247, size: 0x8, addend: 0x0, symName: __ZSt16__introsort_loopIN9__gnu_cxx17__normal_iteratorIPcNSt7__cxx1112basic_stringIcSt11char_traitsIcESaIcEEEEElNS0_5__ops15_Iter_less_iterEEvT_SC_T0_T1_.isra.0, symObjAddr: 0x6F4, symBinAddr: 0x100006D24, symSize: 0x1CC }
  - { offsetInCU: 0x1F866, offset: 0x1F866, size: 0x8, addend: 0x0, symName: __ZSt16__introsort_loopIN9__gnu_cxx17__normal_iteratorIPcNSt7__cxx1112basic_stringIcSt11char_traitsIcESaIcEEEEElNS0_5__ops15_Iter_less_iterEEvT_SC_T0_T1_.isra.0, symObjAddr: 0x6F4, symBinAddr: 0x100006D24, symSize: 0x1CC }
  - { offsetInCU: 0x1F86E, offset: 0x1F86E, size: 0x8, addend: 0x0, symName: __ZNSt8_Rb_treeIcSt4pairIKciESt10_Select1stIS2_ESt4lessIcESaIS2_EE8_M_eraseEPSt13_Rb_tree_nodeIS2_E.isra.0, symObjAddr: 0x8C0, symBinAddr: 0x100006EF0, symSize: 0x180 }
  - { offsetInCU: 0x1F8B7, offset: 0x1F8B7, size: 0x8, addend: 0x0, symName: __ZSt16__introsort_loopIN9__gnu_cxx17__normal_iteratorIPcNSt7__cxx1112basic_stringIcSt11char_traitsIcESaIcEEEEElNS0_5__ops15_Iter_less_iterEEvT_SC_T0_T1_.isra.0, symObjAddr: 0x6F4, symBinAddr: 0x100006D24, symSize: 0x1CC }
  - { offsetInCU: 0x1FF4F, offset: 0x1FF4F, size: 0x8, addend: 0x0, symName: __ZNSt8_Rb_treeIcSt4pairIKciESt10_Select1stIS2_ESt4lessIcESaIS2_EE8_M_eraseEPSt13_Rb_tree_nodeIS2_E.isra.0, symObjAddr: 0x8C0, symBinAddr: 0x100006EF0, symSize: 0x180 }
  - { offsetInCU: 0x1FF57, offset: 0x1FF57, size: 0x8, addend: 0x0, symName: __ZNSt8_Rb_treeIcSt4pairIKccESt10_Select1stIS2_ESt4lessIcESaIS2_EE8_M_eraseEPSt13_Rb_tree_nodeIS2_E.isra.0, symObjAddr: 0xA40, symBinAddr: 0x100007070, symSize: 0x180 }
  - { offsetInCU: 0x20C0D, offset: 0x20C0D, size: 0x8, addend: 0x0, symName: __ZNSt8_Rb_treeIcSt4pairIKccESt10_Select1stIS2_ESt4lessIcESaIS2_EE8_M_eraseEPSt13_Rb_tree_nodeIS2_E.isra.0, symObjAddr: 0xA40, symBinAddr: 0x100007070, symSize: 0x180 }
  - { offsetInCU: 0x20C15, offset: 0x20C15, size: 0x8, addend: 0x0, symName: __Z5solvev, symObjAddr: 0xBC0, symBinAddr: 0x1000071F0, symSize: 0x5F8 }
...
